; Function Attrs: nounwind uwtable
define ptr @l_Lean_PrettyPrinter_format___lambda__3(ptr noundef %0, ptr noundef readnone captures(none) %1, ptr noundef %2, ptr noundef readnone captures(none) %3, ptr noundef %4, ptr noundef %5, ptr noundef %6) local_unnamed_addr #0 {
  tail call void @lean_inc_heartbeat() #6
  %8 = tail call noalias ptr @mi_malloc_small(i64 noundef 16) #6
  %9 = icmp eq ptr %8, null
  br i1 %9, label %10, label %lean_alloc_ctor.exit

10:                                               ; preds = %7
  tail call void @lean_internal_panic_out_of_memory() #7
  unreachable

lean_alloc_ctor.exit:                             ; preds = %7
  %11 = getelementptr inbounds nuw i8, ptr %8, i64 4
  store i32 1, ptr %8, align 4, !tbaa !8
  store i32 50397200, ptr %11, align 4
  %12 = getelementptr inbounds nuw i8, ptr %8, i64 8
  store ptr %2, ptr %12, align 8, !tbaa !4
  %13 = tail call ptr @lean_apply_5(ptr noundef %0, ptr noundef nonnull %8, ptr noundef nonnull inttoptr (i64 1 to ptr), ptr noundef %4, ptr noundef %5, ptr noundef %6) #6
  ret ptr %13
}